target datalayout = "e-m:e-p270:32:32-p271:32:32-p272:64:64-i64:64-i128:128-f80:128-n8:16:32:64-S128"
target triple = "x86_64-pc-linux-gnu"

%struct.cmsysProcess_s = type { ptr, i32, [3 x i32], [3 x i32], i32, [1024 x i8], ptr, i32, double, ptr, i32, i32, i32, i32, i32, %struct.kwsysProcessTime_s, %struct.kwsysProcessTime_s, i32, i32, %struct.fd_set, i32, i32, i32, [1025 x i8], ptr, ptr, ptr, ptr, ptr, i32, i32, i32, [2 x i32], [2 x i32], [2 x i32], i32, ptr }
%struct.kwsysProcessTime_s = type { i64, i64 }
%struct.fd_set = type { [16 x i64] }

; Function Attrs: nounwind uwtable
define dso_local i32 @cmsysProcess_GetOption(ptr noundef %0, i32 noundef %1) #0 {
  %3 = alloca i32, align 4
  %4 = alloca ptr, align 8
  %5 = alloca i32, align 4
  store ptr %0, ptr %4, align 8, !tbaa !4
  store i32 %1, ptr %5, align 4, !tbaa !20
  %6 = load ptr, ptr %4, align 8, !tbaa !4
  %7 = icmp ne ptr %6, null
  br i1 %7, label %9, label %8

8:                                                ; preds = %2
  store i32 0, ptr %3, align 4
  br label %28

9:                                                ; preds = %2
  %10 = load i32, ptr %5, align 4, !tbaa !20
  switch i32 %10, label %27 [
    i32 1, label %11
    i32 2, label %15
    i32 3, label %19
    i32 4, label %23
  ]

11:                                               ; preds = %9
  %12 = load ptr, ptr %4, align 8, !tbaa !4
  %13 = getelementptr inbounds nuw %struct.cmsysProcess_s, ptr %12, i32 0, i32 10
  %14 = load i32, ptr %13, align 8, !tbaa !59
  store i32 %14, ptr %3, align 4
  br label %28

15:                                               ; preds = %9
  %16 = load ptr, ptr %4, align 8, !tbaa !4
  %17 = getelementptr inbounds nuw %struct.cmsysProcess_s, ptr %16, i32 0, i32 13
  %18 = load i32, ptr %17, align 4, !tbaa !60
  store i32 %18, ptr %3, align 4
  br label %28

19:                                               ; preds = %9
  %20 = load ptr, ptr %4, align 8, !tbaa !4
  %21 = getelementptr inbounds nuw %struct.cmsysProcess_s, ptr %20, i32 0, i32 12
  %22 = load i32, ptr %21, align 8, !tbaa !48
  store i32 %22, ptr %3, align 4
  br label %28

23:                                               ; preds = %9
  %24 = load ptr, ptr %4, align 8, !tbaa !4
  %25 = getelementptr inbounds nuw %struct.cmsysProcess_s, ptr %24, i32 0, i32 14
  %26 = load volatile i32, ptr %25, align 8, !tbaa !61
  store i32 %26, ptr %3, align 4
  br label %28

27:                                               ; preds = %9
  store i32 0, ptr %3, align 4
  br label %28

28:                                               ; preds = %27, %23, %19, %15, %11, %8
  %29 = load i32, ptr %3, align 4
  ret i32 %29
}