; Function Attrs: mustprogress nofree norecurse nounwind willreturn memory(argmem: readwrite, inaccessiblemem: readwrite) uwtable
define dso_local i32 @cmsysProcess_GetOption(ptr noundef %0, i32 noundef %1) local_unnamed_addr #11 {
  %.not = icmp eq ptr %0, null
  br i1 %.not, label %16, label %3

3:                                                ; preds = %2
  switch i32 %1, label %16 [
    i32 1, label %4
    i32 2, label %7
    i32 3, label %10
    i32 4, label %13
  ]

4:                                                ; preds = %3
  %5 = getelementptr inbounds nuw i8, ptr %0, i64 1096
  %6 = load i32, ptr %5, align 8, !tbaa !51
  br label %16

7:                                                ; preds = %3
  %8 = getelementptr inbounds nuw i8, ptr %0, i64 1108
  %9 = load i32, ptr %8, align 4, !tbaa !52
  br label %16

10:                                               ; preds = %3
  %11 = getelementptr inbounds nuw i8, ptr %0, i64 1104
  %12 = load i32, ptr %11, align 8, !tbaa !45
  br label %16

13:                                               ; preds = %3
  %14 = getelementptr inbounds nuw i8, ptr %0, i64 1112
  %15 = load volatile i32, ptr %14, align 8, !tbaa !53
  br label %16

16:                                               ; preds = %3, %2, %13, %10, %7, %4
  %.0 = phi i32 [ %15, %13 ], [ %12, %10 ], [ %9, %7 ], [ %6, %4 ], [ 0, %2 ], [ 0, %3 ]
  ret i32 %.0
}